; Function Attrs: mustprogress uwtable
define noundef nonnull ptr @_ZN7rocksdb8MemTable7GetLockERKNS_5SliceE(ptr noundef nonnull readonly align 16 captures(none) dereferenceable(3552) %0, ptr noundef nonnull readonly align 8 captures(none) dereferenceable(16) %1) local_unnamed_addr #4 align 2 {
  %3 = getelementptr inbounds nuw i8, ptr %0, i64 3296
  %4 = getelementptr inbounds nuw i8, ptr %0, i64 3304
  %5 = load ptr, ptr %4, align 8, !tbaa !386
  %6 = load ptr, ptr %3, align 16, !tbaa !385
  %7 = ptrtoint ptr %5 to i64
  %8 = ptrtoint ptr %6 to i64
  %9 = sub i64 %7, %8
  %10 = sdiv exact i64 %9, 56
  %11 = load ptr, ptr %1, align 8, !tbaa !4
  %12 = getelementptr inbounds nuw i8, ptr %1, i64 8
  %13 = load i64, ptr %12, align 8, !tbaa !11
  %14 = tail call noundef i64 @_ZN7rocksdb6Hash64EPKcm(ptr noundef %11, i64 noundef %13)
  %15 = and i64 %10, 4294967295
  %16 = and i64 %14, 4294967295
  %17 = mul nuw i64 %16, %15
  %18 = lshr i64 %17, 32
  %19 = lshr i64 %14, 32
  %20 = mul nuw i64 %19, %15
  %21 = add nuw i64 %18, %20
  %22 = lshr i64 %10, 32
  %23 = mul nuw i64 %16, %22
  %24 = and i64 %23, 4294967295
  %25 = add nuw i64 %21, %24
  %26 = lshr i64 %25, 32
  %27 = lshr i64 %23, 32
  %28 = mul nuw i64 %19, %22
  %29 = load ptr, ptr %3, align 16, !tbaa !385
  %30 = getelementptr %"class.rocksdb::port::RWMutex", ptr %29, i64 %27
  %31 = getelementptr %"class.rocksdb::port::RWMutex", ptr %30, i64 %28
  %32 = getelementptr %"class.rocksdb::port::RWMutex", ptr %31, i64 %26
  ret ptr %32
}